target datalayout = "e-m:e-p270:32:32-p271:32:32-p272:64:64-i64:64-i128:128-f80:128-n8:16:32:64-S128"
target triple = "x86_64-pc-linux-gnu"

; Function Attrs: nounwind uwtable
define internal zeroext i1 @HIDAPI_DriverPS3_IsSupportedDevice(ptr noundef %0, ptr noundef %1, i32 noundef %2, i16 noundef zeroext %3, i16 noundef zeroext %4, i16 noundef zeroext %5, i32 noundef %6, i32 noundef %7, i32 noundef %8, i32 noundef %9) #0 {
  %11 = alloca i1, align 1
  %12 = alloca ptr, align 8
  %13 = alloca ptr, align 8
  %14 = alloca i32, align 4
  %15 = alloca i16, align 2
  %16 = alloca i16, align 2
  %17 = alloca i16, align 2
  %18 = alloca i32, align 4
  %19 = alloca i32, align 4
  %20 = alloca i32, align 4
  %21 = alloca i32, align 4
  store ptr %0, ptr %12, align 8
  store ptr %1, ptr %13, align 8
  store i32 %2, ptr %14, align 4
  store i16 %3, ptr %15, align 2
  store i16 %4, ptr %16, align 2
  store i16 %5, ptr %17, align 2
  store i32 %6, ptr %18, align 4
  store i32 %7, ptr %19, align 4
  store i32 %8, ptr %20, align 4
  store i32 %9, ptr %21, align 4
  %22 = load i16, ptr %15, align 2
  %23 = zext i16 %22 to i32
  %24 = icmp eq i32 %23, 1356
  br i1 %24, label %25, label %30

25:                                               ; preds = %10
  %26 = load i16, ptr %16, align 2
  %27 = zext i16 %26 to i32
  %28 = icmp eq i32 %27, 616
  br i1 %28, label %29, label %30

29:                                               ; preds = %25
  store i1 true, ptr %11, align 1
  br label %40

30:                                               ; preds = %25, %10
  %31 = load i16, ptr %15, align 2
  %32 = zext i16 %31 to i32
  %33 = icmp eq i32 %32, 9571
  br i1 %33, label %34, label %39

34:                                               ; preds = %30
  %35 = load i16, ptr %16, align 2
  %36 = zext i16 %35 to i32
  %37 = icmp eq i32 %36, 1315
  br i1 %37, label %38, label %39

38:                                               ; preds = %34
  store i1 true, ptr %11, align 1
  br label %40

39:                                               ; preds = %34, %30
  store i1 false, ptr %11, align 1
  br label %40

40:                                               ; preds = %39, %38, %29
  %41 = load i1, ptr %11, align 1
  ret i1 %41
}