; Function Attrs: mustprogress nofree norecurse nosync nounwind willreturn memory(none) uwtable
define internal noundef zeroext i1 @HIDAPI_DriverPS3_IsSupportedDevice(ptr readnone captures(none) %0, ptr readnone captures(none) %1, i32 %2, i16 noundef zeroext %3, i16 noundef zeroext %4, i16 zeroext %5, i32 %6, i32 %7, i32 %8, i32 %9) #1 {
  %11 = icmp eq i16 %3, 1356
  %12 = icmp eq i16 %4, 616
  %or.cond = and i1 %11, %12
  br i1 %or.cond, label %16, label %13

13:                                               ; preds = %10
  %14 = icmp eq i16 %3, 9571
  %15 = icmp eq i16 %4, 1315
  %or.cond5 = and i1 %14, %15
  br label %16

16:                                               ; preds = %13, %10
  %.0 = phi i1 [ true, %10 ], [ %or.cond5, %13 ]
  ret i1 %.0
}